target datalayout = "e-m:e-p270:32:32-p271:32:32-p272:64:64-i64:64-i128:128-f80:128-n8:16:32:64-S128"
target triple = "x86_64-pc-linux-gnu"

%struct.ObjectAddress = type { i32, i32, i32 }

; Function Attrs: nounwind uwtable
define dso_local zeroext i1 @EventTriggerSupportsObject(ptr noundef %0) #0 {
  %2 = alloca i1, align 1
  %3 = alloca ptr, align 8
  store ptr %0, ptr %3, align 8
  %4 = load ptr, ptr %3, align 8
  %5 = getelementptr inbounds nuw %struct.ObjectAddress, ptr %4, i32 0, i32 0
  %6 = load i32, ptr %5, align 4
  switch i32 %6, label %9 [
    i32 1262, label %7
    i32 1213, label %7
    i32 1260, label %7
    i32 1261, label %7
    i32 6243, label %7
    i32 3466, label %8
  ]

7:                                                ; preds = %1, %1, %1, %1, %1
  store i1 false, ptr %2, align 1
  br label %10

8:                                                ; preds = %1
  store i1 false, ptr %2, align 1
  br label %10

9:                                                ; preds = %1
  store i1 true, ptr %2, align 1
  br label %10

10:                                               ; preds = %9, %8, %7
  %11 = load i1, ptr %2, align 1
  ret i1 %11
}