; Function Attrs: mustprogress nofree norecurse nosync nounwind willreturn memory(argmem: read) uwtable
define dso_local noundef zeroext i1 @EventTriggerSupportsObject(ptr noundef readonly captures(none) %0) local_unnamed_addr #11 {
  %2 = load i32, ptr %0, align 4
  switch i32 %2, label %3 [
    i32 1262, label %4
    i32 1213, label %4
    i32 1260, label %4
    i32 1261, label %4
    i32 6243, label %4
    i32 3466, label %4
  ]

3:                                                ; preds = %1
  br label %4

4:                                                ; preds = %1, %1, %1, %1, %1, %1, %3
  %.0 = phi i1 [ true, %3 ], [ false, %1 ], [ false, %1 ], [ false, %1 ], [ false, %1 ], [ false, %1 ], [ false, %1 ]
  ret i1 %.0
}